target datalayout = "e-m:e-p270:32:32-p271:32:32-p272:64:64-i64:64-i128:128-f80:128-n8:16:32:64-S128"
target triple = "x86_64-pc-linux-gnu"

%struct._zend_phar_globals = type { %struct._zend_array, %struct._zend_array, ptr, %struct._zend_array, i32, i32, ptr, i32, i32, i32, i32, i8, i8, i8, i32, i32, i32, i32, ptr, ptr, ptr, ptr, ptr, ptr, ptr, ptr, ptr, ptr, ptr, ptr, ptr, ptr, ptr, ptr, ptr, ptr, ptr, ptr, ptr, ptr, ptr, i32, i32, ptr, i32, ptr, i32, ptr, i32, ptr, %struct._zend_array }
%struct._zend_array = type { %struct._zend_refcounted_h, %union.anon.4, i32, %union.anon.6, i32, i32, i32, i32, i64, ptr }
%struct._zend_refcounted_h = type { i32, %union.anon.3 }
%union.anon.3 = type { i32 }
%union.anon.4 = type { i32 }
%union.anon.6 = type { ptr }
%struct._zval_struct = type { %union._zend_value, %union.anon, %union.anon.2 }
%union._zend_value = type { i64 }
%union.anon = type { i32 }
%union.anon.2 = type { i32 }
%struct._phar_metadata_tracker = type { %struct._zval_struct, ptr }
%struct._phar_archive_data = type { ptr, i32, ptr, i32, ptr, i32, [12 x i8], i64, i64, %struct._zend_array, %struct._zend_array, %struct._zend_array, i32, i32, i32, ptr, ptr, i32, i32, i32, ptr, %struct._phar_metadata_tracker, i32, i16 }
%struct._Bucket = type { %struct._zval_struct, i64, ptr }

@phar_globals = external global %struct._zend_phar_globals, align 8

; Function Attrs: nounwind uwtable
define internal void @phar_copy_cached_phar(ptr noundef %0) #0 {
  %2 = alloca ptr, align 8
  %3 = alloca ptr, align 8
  %4 = alloca ptr, align 8
  %5 = alloca %struct._zend_array, align 8
  %6 = alloca ptr, align 8
  %7 = alloca ptr, align 8
  %8 = alloca ptr, align 8
  %9 = alloca ptr, align 8
  %10 = alloca ptr, align 8
  %11 = alloca ptr, align 8
  store ptr %0, ptr %3, align 8
  %12 = call noalias ptr @_emalloc_384()
  store ptr %12, ptr %4, align 8
  %13 = load ptr, ptr %4, align 8
  %14 = load ptr, ptr %3, align 8
  %15 = load ptr, ptr %14, align 8
  call void @llvm.memcpy.p0.p0.i64(ptr align 8 %13, ptr align 8 %15, i64 328, i1 false)
  %16 = load ptr, ptr %4, align 8
  %17 = getelementptr inbounds %struct._phar_archive_data, ptr %16, i32 0, i32 23
  %18 = load i16, ptr %17, align 4
  %19 = and i16 %18, -257
  %20 = or i16 %19, 0
  store i16 %20, ptr %17, align 4
  %21 = load ptr, ptr %4, align 8
  %22 = getelementptr inbounds %struct._phar_archive_data, ptr %21, i32 0, i32 0
  %23 = load ptr, ptr %22, align 8
  store ptr %23, ptr %6, align 8
  %24 = load ptr, ptr %4, align 8
  %25 = getelementptr inbounds %struct._phar_archive_data, ptr %24, i32 0, i32 0
  %26 = load ptr, ptr %25, align 8
  %27 = load ptr, ptr %4, align 8
  %28 = getelementptr inbounds %struct._phar_archive_data, ptr %27, i32 0, i32 1
  %29 = load i32, ptr %28, align 8
  %30 = zext i32 %29 to i64
  %31 = call noalias ptr @_estrndup(ptr noundef %26, i64 noundef %30)
  %32 = load ptr, ptr %4, align 8
  %33 = getelementptr inbounds %struct._phar_archive_data, ptr %32, i32 0, i32 0
  store ptr %31, ptr %33, align 8
  %34 = load ptr, ptr %4, align 8
  %35 = getelementptr inbounds %struct._phar_archive_data, ptr %34, i32 0, i32 0
  %36 = load ptr, ptr %35, align 8
  %37 = load ptr, ptr %4, align 8
  %38 = getelementptr inbounds %struct._phar_archive_data, ptr %37, i32 0, i32 2
  %39 = load ptr, ptr %38, align 8
  %40 = load ptr, ptr %6, align 8
  %41 = ptrtoint ptr %39 to i64
  %42 = ptrtoint ptr %40 to i64
  %43 = sub i64 %41, %42
  %44 = getelementptr inbounds i8, ptr %36, i64 %43
  %45 = load ptr, ptr %4, align 8
  %46 = getelementptr inbounds %struct._phar_archive_data, ptr %45, i32 0, i32 2
  store ptr %44, ptr %46, align 8
  %47 = load ptr, ptr %4, align 8
  %48 = getelementptr inbounds %struct._phar_archive_data, ptr %47, i32 0, i32 4
  %49 = load ptr, ptr %48, align 8
  %50 = icmp ne ptr %49, null
  br i1 %50, label %51, label %62

51:                                               ; preds = %1
  %52 = load ptr, ptr %4, align 8
  %53 = getelementptr inbounds %struct._phar_archive_data, ptr %52, i32 0, i32 4
  %54 = load ptr, ptr %53, align 8
  %55 = load ptr, ptr %4, align 8
  %56 = getelementptr inbounds %struct._phar_archive_data, ptr %55, i32 0, i32 5
  %57 = load i32, ptr %56, align 8
  %58 = zext i32 %57 to i64
  %59 = call noalias ptr @_estrndup(ptr noundef %54, i64 noundef %58)
  %60 = load ptr, ptr %4, align 8
  %61 = getelementptr inbounds %struct._phar_archive_data, ptr %60, i32 0, i32 4
  store ptr %59, ptr %61, align 8
  br label %62

62:                                               ; preds = %51, %1
  %63 = load ptr, ptr %4, align 8
  %64 = getelementptr inbounds %struct._phar_archive_data, ptr %63, i32 0, i32 20
  %65 = load ptr, ptr %64, align 8
  %66 = icmp ne ptr %65, null
  br i1 %66, label %67, label %74

67:                                               ; preds = %62
  %68 = load ptr, ptr %4, align 8
  %69 = getelementptr inbounds %struct._phar_archive_data, ptr %68, i32 0, i32 20
  %70 = load ptr, ptr %69, align 8
  %71 = call noalias ptr @_estrdup(ptr noundef %70)
  %72 = load ptr, ptr %4, align 8
  %73 = getelementptr inbounds %struct._phar_archive_data, ptr %72, i32 0, i32 20
  store ptr %71, ptr %73, align 8
  br label %74

74:                                               ; preds = %67, %62
  %75 = load ptr, ptr %4, align 8
  %76 = getelementptr inbounds %struct._phar_archive_data, ptr %75, i32 0, i32 21
  call void @phar_metadata_tracker_clone(ptr noundef %76)
  call void @_zend_hash_init(ptr noundef %5, i32 noundef 160, ptr noundef @destroy_phar_manifest_entry, i1 noundef zeroext false)
  %77 = load ptr, ptr %3, align 8
  %78 = load ptr, ptr %77, align 8
  %79 = getelementptr inbounds %struct._phar_archive_data, ptr %78, i32 0, i32 9
  call void @zend_hash_copy(ptr noundef %5, ptr noundef %79, ptr noundef @phar_manifest_copy_ctor)
  %80 = load ptr, ptr %4, align 8
  call void @zend_hash_apply_with_argument(ptr noundef %5, ptr noundef @phar_update_cached_entry, ptr noundef %80)
  %81 = load ptr, ptr %4, align 8
  %82 = getelementptr inbounds %struct._phar_archive_data, ptr %81, i32 0, i32 9
  call void @llvm.memcpy.p0.p0.i64(ptr align 8 %82, ptr align 8 %5, i64 56, i1 false)
  %83 = load ptr, ptr %4, align 8
  %84 = getelementptr inbounds %struct._phar_archive_data, ptr %83, i32 0, i32 11
  call void @_zend_hash_init(ptr noundef %84, i32 noundef 8, ptr noundef null, i1 noundef zeroext false)
  %85 = load ptr, ptr %4, align 8
  %86 = getelementptr inbounds %struct._phar_archive_data, ptr %85, i32 0, i32 10
  call void @_zend_hash_init(ptr noundef %86, i32 noundef 8, ptr noundef null, i1 noundef zeroext false)
  %87 = load ptr, ptr %4, align 8
  %88 = getelementptr inbounds %struct._phar_archive_data, ptr %87, i32 0, i32 10
  %89 = load ptr, ptr %3, align 8
  %90 = load ptr, ptr %89, align 8
  %91 = getelementptr inbounds %struct._phar_archive_data, ptr %90, i32 0, i32 10
  call void @zend_hash_copy(ptr noundef %88, ptr noundef %91, ptr noundef null)
  %92 = load ptr, ptr %4, align 8
  %93 = load ptr, ptr %3, align 8
  store ptr %92, ptr %93, align 8
  br label %94

94:                                               ; preds = %74
  store ptr @phar_globals, ptr %8, align 8
  %95 = load ptr, ptr %8, align 8
  %96 = getelementptr inbounds %struct._zend_array, ptr %95, i32 0, i32 3
  %97 = load ptr, ptr %96, align 8
  %98 = getelementptr inbounds %struct._Bucket, ptr %97, i64 0
  store ptr %98, ptr %9, align 8
  %99 = load ptr, ptr %8, align 8
  %100 = getelementptr inbounds %struct._zend_array, ptr %99, i32 0, i32 3
  %101 = load ptr, ptr %100, align 8
  %102 = load ptr, ptr %8, align 8
  %103 = getelementptr inbounds %struct._zend_array, ptr %102, i32 0, i32 4
  %104 = load i32, ptr %103, align 8
  %105 = zext i32 %104 to i64
  %106 = getelementptr inbounds %struct._Bucket, ptr %101, i64 %105
  store ptr %106, ptr %10, align 8
  %107 = load ptr, ptr %8, align 8
  %108 = getelementptr inbounds %struct._zend_array, ptr %107, i32 0, i32 1
  %109 = load i32, ptr %108, align 8
  %110 = and i32 %109, 4
  %111 = icmp ne i32 %110, 0
  %112 = xor i1 %111, true
  call void @llvm.assume(i1 %112)
  br label %113

113:                                              ; preds = %162, %94
  %114 = load ptr, ptr %9, align 8
  %115 = load ptr, ptr %10, align 8
  %116 = icmp ne ptr %114, %115
  br i1 %116, label %117, label %165

117:                                              ; preds = %113
  %118 = load ptr, ptr %9, align 8
  %119 = getelementptr inbounds %struct._Bucket, ptr %118, i32 0, i32 0
  store ptr %119, ptr %11, align 8
  %120 = load ptr, ptr %11, align 8
  store ptr %120, ptr %2, align 8
  %121 = load ptr, ptr %2, align 8
  %122 = getelementptr inbounds %struct._zval_struct, ptr %121, i32 0, i32 1
  %123 = load i8, ptr %122, align 8
  %124 = zext i8 %123 to i32
  %125 = icmp eq i32 %124, 0
  %126 = xor i1 %125, true
  %127 = xor i1 %126, true
  %128 = zext i1 %127 to i32
  %129 = sext i32 %128 to i64
  %130 = icmp ne i64 %129, 0
  br i1 %130, label %131, label %132

131:                                              ; preds = %117
  br label %162

132:                                              ; preds = %117
  %133 = load ptr, ptr %11, align 8
  %134 = getelementptr inbounds %struct._zval_struct, ptr %133, i32 0, i32 0
  %135 = load ptr, ptr %134, align 8
  store ptr %135, ptr %7, align 8
  %136 = load ptr, ptr %7, align 8
  %137 = load ptr, ptr %136, align 8
  %138 = getelementptr inbounds %struct._phar_archive_data, ptr %137, i32 0, i32 1
  %139 = load i32, ptr %138, align 8
  %140 = load ptr, ptr %4, align 8
  %141 = getelementptr inbounds %struct._phar_archive_data, ptr %140, i32 0, i32 1
  %142 = load i32, ptr %141, align 8
  %143 = icmp eq i32 %139, %142
  br i1 %143, label %144, label %161

144:                                              ; preds = %132
  %145 = load ptr, ptr %7, align 8
  %146 = load ptr, ptr %145, align 8
  %147 = getelementptr inbounds %struct._phar_archive_data, ptr %146, i32 0, i32 0
  %148 = load ptr, ptr %147, align 8
  %149 = load ptr, ptr %4, align 8
  %150 = getelementptr inbounds %struct._phar_archive_data, ptr %149, i32 0, i32 0
  %151 = load ptr, ptr %150, align 8
  %152 = load ptr, ptr %4, align 8
  %153 = getelementptr inbounds %struct._phar_archive_data, ptr %152, i32 0, i32 1
  %154 = load i32, ptr %153, align 8
  %155 = zext i32 %154 to i64
  %156 = call i32 @memcmp(ptr noundef %148, ptr noundef %151, i64 noundef %155) #10
  %157 = icmp ne i32 %156, 0
  br i1 %157, label %161, label %158

158:                                              ; preds = %144
  %159 = load ptr, ptr %4, align 8
  %160 = load ptr, ptr %7, align 8
  store ptr %159, ptr %160, align 8
  br label %161

161:                                              ; preds = %158, %144, %132
  br label %162

162:                                              ; preds = %161, %131
  %163 = load ptr, ptr %9, align 8
  %164 = getelementptr inbounds %struct._Bucket, ptr %163, i32 1
  store ptr %164, ptr %9, align 8
  br label %113

165:                                              ; preds = %113
  br label %166

166:                                              ; preds = %165
  ret void
}

; Function Attrs: nounwind uwtable
define hidden i32 @phar_copy_on_write(ptr noundef %0) #0 {
  %2 = alloca ptr, align 8
  %3 = alloca ptr, align 8
  %4 = alloca ptr, align 8
  %5 = alloca i64, align 8
  %6 = alloca ptr, align 8
  %7 = alloca %struct._zval_struct, align 8
  %8 = alloca ptr, align 8
  %9 = alloca i32, align 4
  %10 = alloca ptr, align 8
  %11 = alloca %struct._zval_struct, align 8
  %12 = alloca ptr, align 8
  %13 = alloca ptr, align 8
  store ptr %0, ptr %10, align 8
  br label %14

14:                                               ; preds = %1
  %15 = load ptr, ptr %10, align 8
  %16 = load ptr, ptr %15, align 8
  %17 = getelementptr inbounds %struct._zval_struct, ptr %11, i32 0, i32 0
  store ptr %16, ptr %17, align 8
  %18 = getelementptr inbounds %struct._zval_struct, ptr %11, i32 0, i32 1
  store i32 13, ptr %18, align 8
  br label %19

19:                                               ; preds = %14
  %20 = load ptr, ptr %10, align 8
  %21 = load ptr, ptr %20, align 8
  %22 = getelementptr inbounds %struct._phar_archive_data, ptr %21, i32 0, i32 0
  %23 = load ptr, ptr %22, align 8
  %24 = load ptr, ptr %10, align 8
  %25 = load ptr, ptr %24, align 8
  %26 = getelementptr inbounds %struct._phar_archive_data, ptr %25, i32 0, i32 1
  %27 = load i32, ptr %26, align 8
  %28 = zext i32 %27 to i64
  %29 = call ptr @zend_hash_str_add(ptr noundef getelementptr inbounds (%struct._zend_phar_globals, ptr @phar_globals, i32 0, i32 1), ptr noundef %23, i64 noundef %28, ptr noundef %11)
  store ptr %29, ptr %12, align 8
  %30 = icmp eq ptr null, %29
  br i1 %30, label %31, label %32

31:                                               ; preds = %19
  store i32 -1, ptr %9, align 4
  br label %83

32:                                               ; preds = %19
  %33 = load ptr, ptr %12, align 8
  %34 = getelementptr inbounds %struct._zval_struct, ptr %33, i32 0, i32 0
  call void @phar_copy_cached_phar(ptr noundef %34)
  %35 = load ptr, ptr %12, align 8
  %36 = getelementptr inbounds %struct._zval_struct, ptr %35, i32 0, i32 0
  %37 = load ptr, ptr %36, align 8
  store ptr %37, ptr %13, align 8
  store ptr null, ptr getelementptr inbounds (%struct._zend_phar_globals, ptr @phar_globals, i32 0, i32 49), align 8
  store ptr null, ptr getelementptr inbounds (%struct._zend_phar_globals, ptr @phar_globals, i32 0, i32 47), align 8
  store ptr null, ptr getelementptr inbounds (%struct._zend_phar_globals, ptr @phar_globals, i32 0, i32 45), align 8
  %38 = load ptr, ptr %13, align 8
  %39 = getelementptr inbounds %struct._phar_archive_data, ptr %38, i32 0, i32 5
  %40 = load i32, ptr %39, align 8
  %41 = icmp ne i32 %40, 0
  br i1 %41, label %42, label %80

42:                                               ; preds = %32
  %43 = load ptr, ptr %13, align 8
  %44 = getelementptr inbounds %struct._phar_archive_data, ptr %43, i32 0, i32 4
  %45 = load ptr, ptr %44, align 8
  %46 = load ptr, ptr %13, align 8
  %47 = getelementptr inbounds %struct._phar_archive_data, ptr %46, i32 0, i32 5
  %48 = load i32, ptr %47, align 8
  %49 = zext i32 %48 to i64
  %50 = load ptr, ptr %13, align 8
  store ptr getelementptr inbounds (%struct._zend_phar_globals, ptr @phar_globals, i32 0, i32 3), ptr %3, align 8
  store ptr %45, ptr %4, align 8
  store i64 %49, ptr %5, align 8
  store ptr %50, ptr %6, align 8
  %51 = load ptr, ptr %6, align 8
  store ptr %51, ptr %7, align 8
  %52 = getelementptr inbounds %struct._zval_struct, ptr %7, i32 0, i32 1
  store i32 13, ptr %52, align 8
  %53 = load ptr, ptr %3, align 8
  %54 = load ptr, ptr %4, align 8
  %55 = load i64, ptr %5, align 8
  %56 = call ptr @zend_hash_str_add(ptr noundef %53, ptr noundef %54, i64 noundef %55, ptr noundef %7) #11
  store ptr %56, ptr %8, align 8
  %57 = load ptr, ptr %8, align 8
  %58 = icmp ne ptr %57, null
  br i1 %58, label %59, label %65

59:                                               ; preds = %42
  %60 = load ptr, ptr %8, align 8
  %61 = load ptr, ptr %60, align 8
  %62 = icmp ne ptr %61, null
  call void @llvm.assume(i1 %62)
  %63 = load ptr, ptr %8, align 8
  %64 = load ptr, ptr %63, align 8
  store ptr %64, ptr %2, align 8
  br label %66

65:                                               ; preds = %42
  store ptr null, ptr %2, align 8
  br label %66

66:                                               ; preds = %65, %59
  %67 = load ptr, ptr %2, align 8
  %68 = icmp eq ptr null, %67
  br i1 %68, label %69, label %80

69:                                               ; preds = %66
  %70 = load ptr, ptr %10, align 8
  %71 = load ptr, ptr %70, align 8
  %72 = getelementptr inbounds %struct._phar_archive_data, ptr %71, i32 0, i32 0
  %73 = load ptr, ptr %72, align 8
  %74 = load ptr, ptr %10, align 8
  %75 = load ptr, ptr %74, align 8
  %76 = getelementptr inbounds %struct._phar_archive_data, ptr %75, i32 0, i32 1
  %77 = load i32, ptr %76, align 8
  %78 = zext i32 %77 to i64
  %79 = call i32 @zend_hash_str_del(ptr noundef getelementptr inbounds (%struct._zend_phar_globals, ptr @phar_globals, i32 0, i32 1), ptr noundef %73, i64 noundef %78)
  store i32 -1, ptr %9, align 4
  br label %83

80:                                               ; preds = %66, %32
  %81 = load ptr, ptr %13, align 8
  %82 = load ptr, ptr %10, align 8
  store ptr %81, ptr %82, align 8
  store i32 0, ptr %9, align 4
  br label %83

83:                                               ; preds = %80, %69, %31
  %84 = load i32, ptr %9, align 4
  ret i32 %84
}