; Function Attrs: nounwind uwtable
define hidden noundef i32 @phar_copy_on_write(ptr nocapture noundef %0) local_unnamed_addr #0 {
  %2 = alloca %struct._zend_array, align 8
  %3 = alloca %struct._zval_struct, align 8
  %4 = alloca %struct._zval_struct, align 8
  %5 = load ptr, ptr %0, align 8
  store ptr %5, ptr %4, align 8
  %6 = getelementptr inbounds i8, ptr %4, i64 8
  store i32 13, ptr %6, align 8
  %7 = load ptr, ptr %5, align 8
  %8 = getelementptr inbounds i8, ptr %5, i64 8
  %9 = load i32, ptr %8, align 8
  %10 = zext i32 %9 to i64
  %11 = call ptr @zend_hash_str_add(ptr noundef nonnull getelementptr inbounds (%struct._zend_phar_globals, ptr @phar_globals, i64 0, i32 1), ptr noundef %7, i64 noundef %10, ptr noundef nonnull %4) #15
  %12 = icmp eq ptr %11, null
  br i1 %12, label %91, label %13

13:                                               ; preds = %1
  call void @llvm.lifetime.start.p0(i64 56, ptr nonnull %2)
  %14 = call noalias ptr @_emalloc_384() #15
  %15 = load ptr, ptr %11, align 8
  call void @llvm.memcpy.p0.p0.i64(ptr noundef nonnull align 8 dereferenceable(328) %14, ptr noundef nonnull align 8 dereferenceable(328) %15, i64 328, i1 false)
  %16 = getelementptr inbounds i8, ptr %14, i64 324
  %17 = load i16, ptr %16, align 4
  %18 = and i16 %17, -257
  store i16 %18, ptr %16, align 4
  %19 = load ptr, ptr %14, align 8
  %20 = getelementptr inbounds i8, ptr %14, i64 8
  %21 = load i32, ptr %20, align 8
  %22 = zext i32 %21 to i64
  %23 = call noalias ptr @_estrndup(ptr noundef %19, i64 noundef %22) #15
  store ptr %23, ptr %14, align 8
  %24 = getelementptr inbounds i8, ptr %14, i64 16
  %25 = load ptr, ptr %24, align 8
  %26 = ptrtoint ptr %25 to i64
  %27 = ptrtoint ptr %19 to i64
  %28 = sub i64 %26, %27
  %29 = getelementptr inbounds i8, ptr %23, i64 %28
  store ptr %29, ptr %24, align 8
  %30 = getelementptr inbounds i8, ptr %14, i64 32
  %31 = load ptr, ptr %30, align 8
  %.not.i = icmp eq ptr %31, null
  br i1 %.not.i, label %37, label %32

32:                                               ; preds = %13
  %33 = getelementptr inbounds i8, ptr %14, i64 40
  %34 = load i32, ptr %33, align 8
  %35 = zext i32 %34 to i64
  %36 = call noalias ptr @_estrndup(ptr noundef nonnull %31, i64 noundef %35) #15
  store ptr %36, ptr %30, align 8
  br label %37

37:                                               ; preds = %32, %13
  %38 = getelementptr inbounds i8, ptr %14, i64 288
  %39 = load ptr, ptr %38, align 8
  %.not49.i = icmp eq ptr %39, null
  br i1 %.not49.i, label %42, label %40

40:                                               ; preds = %37
  %41 = call noalias ptr @_estrdup(ptr noundef nonnull %39) #15
  store ptr %41, ptr %38, align 8
  br label %42

42:                                               ; preds = %40, %37
  %43 = getelementptr inbounds i8, ptr %14, i64 296
  call void @phar_metadata_tracker_clone(ptr noundef nonnull %43) #15
  call void @_zend_hash_init(ptr noundef nonnull %2, i32 noundef 160, ptr noundef nonnull @destroy_phar_manifest_entry, i1 noundef zeroext false) #15
  %44 = load ptr, ptr %11, align 8
  %45 = getelementptr inbounds i8, ptr %44, i64 72
  call void @zend_hash_copy(ptr noundef nonnull %2, ptr noundef nonnull %45, ptr noundef nonnull @phar_manifest_copy_ctor) #15
  call void @zend_hash_apply_with_argument(ptr noundef nonnull %2, ptr noundef nonnull @phar_update_cached_entry, ptr noundef nonnull %14) #15
  %46 = getelementptr inbounds i8, ptr %14, i64 72
  call void @llvm.memcpy.p0.p0.i64(ptr noundef nonnull align 8 dereferenceable(56) %46, ptr noundef nonnull align 8 dereferenceable(56) %2, i64 56, i1 false)
  %47 = getelementptr inbounds i8, ptr %14, i64 184
  call void @_zend_hash_init(ptr noundef nonnull %47, i32 noundef 8, ptr noundef null, i1 noundef zeroext false) #15
  %48 = getelementptr inbounds i8, ptr %14, i64 128
  call void @_zend_hash_init(ptr noundef nonnull %48, i32 noundef 8, ptr noundef null, i1 noundef zeroext false) #15
  %49 = load ptr, ptr %11, align 8
  %50 = getelementptr inbounds i8, ptr %49, i64 128
  call void @zend_hash_copy(ptr noundef nonnull %48, ptr noundef nonnull %50, ptr noundef null) #15
  store ptr %14, ptr %11, align 8
  %51 = load ptr, ptr getelementptr inbounds (%struct._zend_phar_globals, ptr @phar_globals, i64 0, i32 0, i32 3), align 8
  %52 = load i32, ptr getelementptr inbounds (%struct._zend_phar_globals, ptr @phar_globals, i64 0, i32 0, i32 4), align 8
  %53 = zext i32 %52 to i64
  %54 = getelementptr inbounds %struct._Bucket, ptr %51, i64 %53
  %55 = load i32, ptr getelementptr inbounds (%struct._zend_phar_globals, ptr @phar_globals, i64 0, i32 0, i32 1), align 8
  %56 = and i32 %55, 4
  %.not50.i = icmp eq i32 %56, 0
  call void @llvm.assume(i1 %.not50.i)
  %.not5153.i = icmp eq i32 %52, 0
  br i1 %.not5153.i, label %phar_copy_cached_phar.exit, label %.lr.ph.i

.lr.ph.i:                                         ; preds = %42, %72
  %.054.i = phi ptr [ %73, %72 ], [ %51, %42 ]
  %57 = getelementptr inbounds i8, ptr %.054.i, i64 8
  %58 = load i8, ptr %57, align 8
  %59 = icmp eq i8 %58, 0
  br i1 %59, label %72, label %60

60:                                               ; preds = %.lr.ph.i
  %61 = load ptr, ptr %.054.i, align 8
  %62 = load ptr, ptr %61, align 8
  %63 = getelementptr inbounds i8, ptr %62, i64 8
  %64 = load i32, ptr %63, align 8
  %65 = load i32, ptr %20, align 8
  %66 = icmp eq i32 %64, %65
  br i1 %66, label %67, label %72

67:                                               ; preds = %60
  %68 = load ptr, ptr %62, align 8
  %69 = load ptr, ptr %14, align 8
  %70 = zext i32 %64 to i64
  %bcmp.i = call i32 @bcmp(ptr %68, ptr %69, i64 %70)
  %.not52.i = icmp eq i32 %bcmp.i, 0
  br i1 %.not52.i, label %71, label %72

71:                                               ; preds = %67
  store ptr %14, ptr %61, align 8
  br label %72

72:                                               ; preds = %71, %67, %60, %.lr.ph.i
  %73 = getelementptr inbounds i8, ptr %.054.i, i64 32
  %.not51.i = icmp eq ptr %73, %54
  br i1 %.not51.i, label %phar_copy_cached_phar.exit.loopexit, label %.lr.ph.i

phar_copy_cached_phar.exit.loopexit:              ; preds = %72
  %.pre = load ptr, ptr %11, align 8
  br label %phar_copy_cached_phar.exit

phar_copy_cached_phar.exit:                       ; preds = %phar_copy_cached_phar.exit.loopexit, %42
  %74 = phi ptr [ %.pre, %phar_copy_cached_phar.exit.loopexit ], [ %14, %42 ]
  call void @llvm.lifetime.end.p0(i64 56, ptr nonnull %2)
  store ptr null, ptr getelementptr inbounds (%struct._zend_phar_globals, ptr @phar_globals, i64 0, i32 49), align 8
  store ptr null, ptr getelementptr inbounds (%struct._zend_phar_globals, ptr @phar_globals, i64 0, i32 47), align 8
  store ptr null, ptr getelementptr inbounds (%struct._zend_phar_globals, ptr @phar_globals, i64 0, i32 45), align 8
  %75 = getelementptr inbounds i8, ptr %74, i64 40
  %76 = load i32, ptr %75, align 8
  %.not = icmp eq i32 %76, 0
  br i1 %.not, label %90, label %77

77:                                               ; preds = %phar_copy_cached_phar.exit
  %78 = getelementptr inbounds i8, ptr %74, i64 32
  %79 = load ptr, ptr %78, align 8
  %80 = zext i32 %76 to i64
  store ptr %74, ptr %3, align 8
  %81 = getelementptr inbounds i8, ptr %3, i64 8
  store i32 13, ptr %81, align 8
  %82 = call ptr @zend_hash_str_add(ptr noundef nonnull getelementptr inbounds (%struct._zend_phar_globals, ptr @phar_globals, i64 0, i32 3), ptr noundef %79, i64 noundef %80, ptr noundef nonnull %3) #15
  %.not25 = icmp eq ptr %82, null
  br i1 %.not25, label %83, label %90

83:                                               ; preds = %77
  %84 = load ptr, ptr %0, align 8
  %85 = load ptr, ptr %84, align 8
  %86 = getelementptr inbounds i8, ptr %84, i64 8
  %87 = load i32, ptr %86, align 8
  %88 = zext i32 %87 to i64
  %89 = call i32 @zend_hash_str_del(ptr noundef nonnull getelementptr inbounds (%struct._zend_phar_globals, ptr @phar_globals, i64 0, i32 1), ptr noundef %85, i64 noundef %88) #15
  br label %91

90:                                               ; preds = %77, %phar_copy_cached_phar.exit
  store ptr %74, ptr %0, align 8
  br label %91

91:                                               ; preds = %1, %90, %83
  %.021 = phi i32 [ -1, %83 ], [ 0, %90 ], [ -1, %1 ]
  ret i32 %.021
}